target datalayout = "e-m:e-p270:32:32-p271:32:32-p272:64:64-i64:64-i128:128-f80:128-n8:16:32:64-S128"
target triple = "x86_64-pc-linux-gnu"

%struct.dynbuf = type { ptr, i64, i64, i64 }

; Function Attrs: nounwind uwtable
define dso_local i32 @Curl_dyn_setlen(ptr noundef %0, i64 noundef %1) #0 {
  %3 = alloca i32, align 4
  %4 = alloca ptr, align 8
  %5 = alloca i64, align 8
  store ptr %0, ptr %4, align 8, !tbaa !4
  store i64 %1, ptr %5, align 8, !tbaa !9
  br label %6

6:                                                ; preds = %2
  br label %7

7:                                                ; preds = %6
  br label %8

8:                                                ; preds = %7
  br label %9

9:                                                ; preds = %8
  br label %10

10:                                               ; preds = %9
  br label %11

11:                                               ; preds = %10
  %12 = load i64, ptr %5, align 8, !tbaa !9
  %13 = load ptr, ptr %4, align 8, !tbaa !4
  %14 = getelementptr inbounds nuw %struct.dynbuf, ptr %13, i32 0, i32 1
  %15 = load i64, ptr %14, align 8, !tbaa !14
  %16 = icmp ugt i64 %12, %15
  br i1 %16, label %17, label %18

17:                                               ; preds = %11
  store i32 43, ptr %3, align 4
  br label %29

18:                                               ; preds = %11
  %19 = load i64, ptr %5, align 8, !tbaa !9
  %20 = load ptr, ptr %4, align 8, !tbaa !4
  %21 = getelementptr inbounds nuw %struct.dynbuf, ptr %20, i32 0, i32 1
  store i64 %19, ptr %21, align 8, !tbaa !14
  %22 = load ptr, ptr %4, align 8, !tbaa !4
  %23 = getelementptr inbounds nuw %struct.dynbuf, ptr %22, i32 0, i32 0
  %24 = load ptr, ptr %23, align 8, !tbaa !11
  %25 = load ptr, ptr %4, align 8, !tbaa !4
  %26 = getelementptr inbounds nuw %struct.dynbuf, ptr %25, i32 0, i32 1
  %27 = load i64, ptr %26, align 8, !tbaa !14
  %28 = getelementptr inbounds nuw i8, ptr %24, i64 %27
  store i8 0, ptr %28, align 1, !tbaa !18
  store i32 0, ptr %3, align 4
  br label %29

29:                                               ; preds = %18, %17
  %30 = load i32, ptr %3, align 4
  ret i32 %30
}